target datalayout = "e-m:e-p270:32:32-p271:32:32-p272:64:64-i64:64-i128:128-f80:128-n8:16:32:64-S128"
target triple = "x86_64-pc-linux-gnu"

%struct.rb_memory_view_t = type { i64, ptr, i64, i8, ptr, i64, %struct.anon, i64, ptr, ptr, ptr, ptr, ptr }
%struct.anon = type { ptr, i64 }

; Function Attrs: nounwind sspstrong uwtable
define internal zeroext i1 @mdview_release_memory_view(i64 noundef %0, ptr noundef %1) #0 {
  %3 = alloca i64, align 8
  %4 = alloca ptr, align 8
  store i64 %0, ptr %3, align 8, !tbaa !6
  store ptr %1, ptr %4, align 8, !tbaa !15
  %5 = load ptr, ptr %4, align 8, !tbaa !15
  %6 = getelementptr inbounds nuw %struct.rb_memory_view_t, ptr %5, i32 0, i32 8
  %7 = load ptr, ptr %6, align 8, !tbaa !37
  call void @ruby_xfree(ptr noundef %7)
  %8 = load ptr, ptr %4, align 8, !tbaa !15
  %9 = getelementptr inbounds nuw %struct.rb_memory_view_t, ptr %8, i32 0, i32 9
  %10 = load ptr, ptr %9, align 8, !tbaa !38
  call void @ruby_xfree(ptr noundef %10)
  ret i1 true
}