; Function Attrs: nounwind sspstrong uwtable
define internal noundef zeroext i1 @mdview_release_memory_view(i64 %0, ptr noundef readonly captures(none) %1) #0 {
  %3 = getelementptr inbounds nuw i8, ptr %1, i64 72
  %4 = load ptr, ptr %3, align 8, !tbaa !35
  tail call void @ruby_xfree(ptr noundef %4) #9
  %5 = getelementptr inbounds nuw i8, ptr %1, i64 80
  %6 = load ptr, ptr %5, align 8, !tbaa !36
  tail call void @ruby_xfree(ptr noundef %6) #9
  ret i1 true
}